target datalayout = "e-m:e-p270:32:32-p271:32:32-p272:64:64-i64:64-i128:128-f80:128-n8:16:32:64-S128"
target triple = "x86_64-unknown-linux-gnu"

%"class.boost::detail::shared_count" = type { ptr }
%"class.QuantLib::Handle" = type { %"class.boost::shared_ptr.50" }
%"class.boost::shared_ptr.50" = type { ptr, %"class.boost::detail::shared_count" }
%"class.std::vector.35" = type { %"struct.std::_Vector_base.36" }
%"struct.std::_Vector_base.36" = type { %"struct.std::_Vector_base<double, std::allocator<double>>::_Vector_impl" }
%"struct.std::_Vector_base<double, std::allocator<double>>::_Vector_impl" = type { %"struct.std::_Vector_base<double, std::allocator<double>>::_Vector_impl_data" }
%"struct.std::_Vector_base<double, std::allocator<double>>::_Vector_impl_data" = type { ptr, ptr, ptr }
%"class.QuantLib::GFunction" = type { ptr }
%"class.__gnu_cxx::__normal_iterator" = type { ptr }
%"class.boost::shared_ptr.91" = type { ptr, %"class.boost::detail::shared_count" }
%"class.QuantLib::GFunctionFactory::GFunctionWithShifts" = type { %"class.QuantLib::GFunction", double, double, %"class.std::vector.35", %"class.std::vector.35", %"class.std::vector.35", double, double, double, %"class.QuantLib::Handle", double, double, double, %"class.boost::shared_ptr.91" }

; Function Attrs: mustprogress nounwind uwtable
define linkonce_odr void @_ZN9__gnu_cxx17__normal_iteratorIPdSt6vectorIdSaIdEEEC2ERKS1_(ptr noundef nonnull align 8 dereferenceable(8) %this, ptr noundef nonnull align 8 dereferenceable(8) %__i) unnamed_addr #1 comdat align 2 {
entry:
  %this.addr = alloca ptr, align 8
  %__i.addr = alloca ptr, align 8
  store ptr %this, ptr %this.addr, align 8, !tbaa !3
  store ptr %__i, ptr %__i.addr, align 8, !tbaa !3
  %this1 = load ptr, ptr %this.addr, align 8
  %_M_current = getelementptr inbounds nuw %"class.__gnu_cxx::__normal_iterator", ptr %this1, i32 0, i32 0
  %0 = load ptr, ptr %__i.addr, align 8, !tbaa !3
  %1 = load ptr, ptr %0, align 8, !tbaa !3
  store ptr %1, ptr %_M_current, align 8, !tbaa !141
  ret void
}

; Function Attrs: mustprogress nounwind uwtable
define linkonce_odr noundef nonnull align 8 dereferenceable(8) ptr @_ZNK9__gnu_cxx17__normal_iteratorIPdSt6vectorIdSaIdEEEdeEv(ptr noundef nonnull align 8 dereferenceable(8) %this) #1 comdat align 2 {
entry:
  %this.addr = alloca ptr, align 8
  store ptr %this, ptr %this.addr, align 8, !tbaa !3
  %this1 = load ptr, ptr %this.addr, align 8
  %_M_current = getelementptr inbounds nuw %"class.__gnu_cxx::__normal_iterator", ptr %this1, i32 0, i32 0
  %0 = load ptr, ptr %_M_current, align 8, !tbaa !141
  ret ptr %0
}

; Function Attrs: mustprogress nounwind uwtable
define linkonce_odr ptr @_ZNK9__gnu_cxx17__normal_iteratorIPdSt6vectorIdSaIdEEEmiEl(ptr noundef nonnull align 8 dereferenceable(8) %this, i64 noundef %__n) #1 comdat align 2 {
entry:
  %retval = alloca %"class.__gnu_cxx::__normal_iterator", align 8
  %this.addr = alloca ptr, align 8
  %__n.addr = alloca i64, align 8
  %ref.tmp = alloca ptr, align 8
  store ptr %this, ptr %this.addr, align 8, !tbaa !3
  store i64 %__n, ptr %__n.addr, align 8, !tbaa !30
  %this1 = load ptr, ptr %this.addr, align 8
  call void @llvm.lifetime.start.p0(i64 8, ptr %ref.tmp) #18
  %_M_current = getelementptr inbounds nuw %"class.__gnu_cxx::__normal_iterator", ptr %this1, i32 0, i32 0
  %0 = load ptr, ptr %_M_current, align 8, !tbaa !141
  %1 = load i64, ptr %__n.addr, align 8, !tbaa !30
  %idx.neg = sub i64 0, %1
  %add.ptr = getelementptr inbounds double, ptr %0, i64 %idx.neg
  store ptr %add.ptr, ptr %ref.tmp, align 8, !tbaa !3
  call void @_ZN9__gnu_cxx17__normal_iteratorIPdSt6vectorIdSaIdEEEC2ERKS1_(ptr noundef nonnull align 8 dereferenceable(8) %retval, ptr noundef nonnull align 8 dereferenceable(8) %ref.tmp) #18
  call void @llvm.lifetime.end.p0(i64 8, ptr %ref.tmp) #18
  %coerce.dive = getelementptr inbounds nuw %"class.__gnu_cxx::__normal_iterator", ptr %retval, i32 0, i32 0
  %2 = load ptr, ptr %coerce.dive, align 8
  ret ptr %2
}

; Function Attrs: mustprogress nounwind uwtable
define linkonce_odr ptr @_ZNSt6vectorIdSaIdEE3endEv(ptr noundef nonnull align 8 dereferenceable(24) %this) #1 comdat align 2 {
entry:
  %retval = alloca %"class.__gnu_cxx::__normal_iterator", align 8
  %this.addr = alloca ptr, align 8
  store ptr %this, ptr %this.addr, align 8, !tbaa !3
  %this1 = load ptr, ptr %this.addr, align 8
  %_M_impl = getelementptr inbounds nuw %"struct.std::_Vector_base.36", ptr %this1, i32 0, i32 0
  %_M_finish = getelementptr inbounds nuw %"struct.std::_Vector_base<double, std::allocator<double>>::_Vector_impl_data", ptr %_M_impl, i32 0, i32 1
  call void @_ZN9__gnu_cxx17__normal_iteratorIPdSt6vectorIdSaIdEEEC2ERKS1_(ptr noundef nonnull align 8 dereferenceable(8) %retval, ptr noundef nonnull align 8 dereferenceable(8) %_M_finish) #18
  %coerce.dive = getelementptr inbounds nuw %"class.__gnu_cxx::__normal_iterator", ptr %retval, i32 0, i32 0
  %0 = load ptr, ptr %coerce.dive, align 8
  ret ptr %0
}

; Function Attrs: mustprogress nounwind uwtable
define linkonce_odr noundef nonnull align 8 dereferenceable(8) ptr @_ZNSt6vectorIdSaIdEE4backEv(ptr noundef nonnull align 8 dereferenceable(24) %this) #1 comdat align 2 {
entry:
  %this.addr = alloca ptr, align 8
  %ref.tmp = alloca %"class.__gnu_cxx::__normal_iterator", align 8
  %ref.tmp2 = alloca %"class.__gnu_cxx::__normal_iterator", align 8
  store ptr %this, ptr %this.addr, align 8, !tbaa !3
  %this1 = load ptr, ptr %this.addr, align 8
  call void @llvm.lifetime.start.p0(i64 8, ptr %ref.tmp) #18
  call void @llvm.lifetime.start.p0(i64 8, ptr %ref.tmp2) #18
  %call = call ptr @_ZNSt6vectorIdSaIdEE3endEv(ptr noundef nonnull align 8 dereferenceable(24) %this1) #18
  %coerce.dive = getelementptr inbounds nuw %"class.__gnu_cxx::__normal_iterator", ptr %ref.tmp2, i32 0, i32 0
  store ptr %call, ptr %coerce.dive, align 8
  %call3 = call ptr @_ZNK9__gnu_cxx17__normal_iteratorIPdSt6vectorIdSaIdEEEmiEl(ptr noundef nonnull align 8 dereferenceable(8) %ref.tmp2, i64 noundef 1) #18
  %coerce.dive4 = getelementptr inbounds nuw %"class.__gnu_cxx::__normal_iterator", ptr %ref.tmp, i32 0, i32 0
  store ptr %call3, ptr %coerce.dive4, align 8
  %call5 = call noundef nonnull align 8 dereferenceable(8) ptr @_ZNK9__gnu_cxx17__normal_iteratorIPdSt6vectorIdSaIdEEEdeEv(ptr noundef nonnull align 8 dereferenceable(8) %ref.tmp) #18
  call void @llvm.lifetime.end.p0(i64 8, ptr %ref.tmp2) #18
  call void @llvm.lifetime.end.p0(i64 8, ptr %ref.tmp) #18
  ret ptr %call5
}

; Function Attrs: mustprogress nounwind uwtable
define noundef double @_ZN8QuantLib16GFunctionFactory19GFunctionWithShifts9functionZEd(ptr noundef nonnull align 8 dereferenceable(176) %this, double noundef %x) #1 align 2 {
entry:
  %this.addr = alloca ptr, align 8
  %x.addr = alloca double, align 8
  store ptr %this, ptr %this.addr, align 8, !tbaa !3
  store double %x, ptr %x.addr, align 8, !tbaa !18
  %this1 = load ptr, ptr %this.addr, align 8
  %shapedPaymentTime_ = getelementptr inbounds nuw %"class.QuantLib::GFunctionFactory::GFunctionWithShifts", ptr %this1, i32 0, i32 2
  %0 = load double, ptr %shapedPaymentTime_, align 8, !tbaa !151
  %fneg = fneg double %0
  %1 = load double, ptr %x.addr, align 8, !tbaa !18
  %mul = fmul double %fneg, %1
  %call = call double @exp(double noundef %mul) #18, !tbaa !32
  %discountRatio_ = getelementptr inbounds nuw %"class.QuantLib::GFunctionFactory::GFunctionWithShifts", ptr %this1, i32 0, i32 7
  %2 = load double, ptr %discountRatio_, align 8, !tbaa !153
  %shapedSwapPaymentTimes_ = getelementptr inbounds nuw %"class.QuantLib::GFunctionFactory::GFunctionWithShifts", ptr %this1, i32 0, i32 3
  %call2 = call noundef nonnull align 8 dereferenceable(8) ptr @_ZNSt6vectorIdSaIdEE4backEv(ptr noundef nonnull align 8 dereferenceable(24) %shapedSwapPaymentTimes_) #18
  %3 = load double, ptr %call2, align 8, !tbaa !18
  %fneg3 = fneg double %3
  %4 = load double, ptr %x.addr, align 8, !tbaa !18
  %mul4 = fmul double %fneg3, %4
  %call5 = call double @exp(double noundef %mul4) #18, !tbaa !32
  %neg = fneg double %2
  %5 = call double @llvm.fmuladd.f64(double %neg, double %call5, double 1.000000e+00)
  %div = fdiv double %call, %5
  ret double %div
}

; Function Attrs: mustprogress uwtable
define noundef double @_ZN8QuantLib16GFunctionFactory19GFunctionWithShifts15firstDerivativeEd(ptr noundef nonnull align 8 dereferenceable(176) %this, double noundef %Rs) unnamed_addr #2 align 2 {
entry:
  %this.addr = alloca ptr, align 8
  %Rs.addr = alloca double, align 8
  %calibratedShift = alloca double, align 8
  store ptr %this, ptr %this.addr, align 8, !tbaa !3
  store double %Rs, ptr %Rs.addr, align 8, !tbaa !18
  %this1 = load ptr, ptr %this.addr, align 8
  call void @llvm.lifetime.start.p0(i64 8, ptr %calibratedShift) #18
  %0 = load double, ptr %Rs.addr, align 8, !tbaa !18
  %call = call noundef double @_ZN8QuantLib16GFunctionFactory19GFunctionWithShifts18calibrationOfShiftEd(ptr noundef nonnull align 8 dereferenceable(176) %this1, double noundef %0)
  store double %call, ptr %calibratedShift, align 8, !tbaa !18
  %1 = load double, ptr %calibratedShift, align 8, !tbaa !18
  %call2 = call noundef double @_ZN8QuantLib16GFunctionFactory19GFunctionWithShifts9functionZEd(ptr noundef nonnull align 8 dereferenceable(176) %this1, double noundef %1)
  %2 = load double, ptr %Rs.addr, align 8, !tbaa !18
  %3 = load double, ptr %calibratedShift, align 8, !tbaa !18
  %call3 = call noundef double @_ZN8QuantLib16GFunctionFactory19GFunctionWithShifts9derZ_derXEd(ptr noundef nonnull align 8 dereferenceable(176) %this1, double noundef %3)
  %mul = fmul double %2, %call3
  %4 = load double, ptr %calibratedShift, align 8, !tbaa !18
  %call4 = call noundef double @_ZN8QuantLib16GFunctionFactory19GFunctionWithShifts10derRs_derXEd(ptr noundef nonnull align 8 dereferenceable(176) %this1, double noundef %4)
  %div = fdiv double %mul, %call4
  %add = fadd double %call2, %div
  call void @llvm.lifetime.end.p0(i64 8, ptr %calibratedShift) #18
  ret double %add
}